; Function Attrs: null_pointer_is_valid sspstrong uwtable
define hidden void @p1_initialize_content_globals(ptr noundef captures(none) initializes((72, 80), (128, 136)) %0, ptr noundef %1, i1 noundef zeroext %2) local_unnamed_addr #0 {
  %4 = getelementptr inbounds nuw i8, ptr %0, i64 136
  %5 = load ptr, ptr %4, align 8
  %6 = icmp eq ptr %5, null
  br i1 %6, label %7, label %13

7:                                                ; preds = %3
  %8 = getelementptr inbounds nuw i8, ptr %0, i64 16
  %9 = load ptr, ptr %8, align 8
  %10 = getelementptr inbounds nuw i8, ptr %9, i64 408
  %11 = load ptr, ptr %10, align 8
  %12 = tail call noalias dereferenceable_or_null(32) ptr @wmem_alloc0(ptr noundef %11, i64 noundef 32) #6
  store ptr %12, ptr %4, align 8
  br label %13

13:                                               ; preds = %7, %3
  %14 = phi ptr [ %12, %7 ], [ %5, %3 ]
  %15 = zext i1 %2 to i8
  %16 = getelementptr inbounds nuw i8, ptr %0, i64 128
  store ptr %1, ptr %16, align 8
  %17 = getelementptr inbounds nuw i8, ptr %0, i64 72
  store ptr null, ptr %17, align 8
  %18 = getelementptr inbounds nuw i8, ptr %14, i64 8
  store ptr null, ptr %18, align 8
  %19 = getelementptr inbounds nuw i8, ptr %14, i64 16
  store i8 %15, ptr %19, align 8
  ret void
}